; Function Attrs: null_pointer_is_valid sspstrong uwtable
define internal void @fragment_bundle_ident_free_persistent_key(ptr noundef initializes((8, 16)) %0) #2 {
  %2 = load i32, ptr %0, align 8
  %.not.i.i = icmp eq i32 %2, 0
  br i1 %.not.i.i, label %free_address.exit, label %3

3:                                                ; preds = %1
  %4 = getelementptr inbounds nuw i8, ptr %0, i64 4
  %5 = load i32, ptr %4, align 4
  %6 = icmp sgt i32 %5, 0
  br i1 %6, label %7, label %free_address.exit

7:                                                ; preds = %3
  %8 = getelementptr inbounds nuw i8, ptr %0, i64 16
  %9 = load ptr, ptr %8, align 8
  %.not6.i.i = icmp eq ptr %9, null
  br i1 %.not6.i.i, label %free_address.exit, label %10

10:                                               ; preds = %7
  tail call void @wmem_free(ptr noundef null, ptr noundef nonnull %9)
  br label %free_address.exit

free_address.exit:                                ; preds = %1, %3, %7, %10
  tail call void @llvm.memset.p0.i64(ptr noundef align 8 dereferenceable(24) %0, i8 0, i64 24, i1 false)
  %11 = getelementptr inbounds nuw i8, ptr %0, i64 56
  %12 = load ptr, ptr %11, align 8
  tail call void @g_slice_free1(i64 noundef 8, ptr noundef %12)
  %13 = getelementptr inbounds nuw i8, ptr %0, i64 64
  %14 = load ptr, ptr %13, align 8
  tail call void @g_slice_free1(i64 noundef 8, ptr noundef %14)
  tail call void @g_slice_free1(i64 noundef 72, ptr noundef %0)
  ret void
}